target datalayout = "e-m:e-p270:32:32-p271:32:32-p272:64:64-i64:64-i128:128-f80:128-n8:16:32:64-S128"
target triple = "x86_64-pc-linux-gnu"

%struct.X509_req_st = type { ptr, ptr, ptr, i32 }
%struct.X509_req_info_st = type { %struct.ASN1_ENCODING_st, ptr, ptr, ptr, ptr }
%struct.ASN1_ENCODING_st = type { ptr, i64, i32 }
%struct.evp_pkey_st = type { i32, i32, %union.anon, ptr }
%union.anon = type { ptr }

@.str = private unnamed_addr constant [126 x i8] c"generated/home/dtcxzyw/WorkSpace/Projects/compilers/llvm-opt-benchmark/bench/libquic/libquic/boringssl/crypto/x509/x509_req.c\00", align 1

; Function Attrs: nounwind uwtable
define hidden ptr @X509_REQ_get_pubkey(ptr noundef %0) #0 {
  %2 = alloca ptr, align 8
  %3 = alloca ptr, align 8
  store ptr %0, ptr %3, align 8, !tbaa !15
  %4 = load ptr, ptr %3, align 8, !tbaa !15
  %5 = icmp eq ptr %4, null
  br i1 %5, label %11, label %6

6:                                                ; preds = %1
  %7 = load ptr, ptr %3, align 8, !tbaa !15
  %8 = getelementptr inbounds nuw %struct.X509_req_st, ptr %7, i32 0, i32 0
  %9 = load ptr, ptr %8, align 8, !tbaa !17
  %10 = icmp eq ptr %9, null
  br i1 %10, label %11, label %12

11:                                               ; preds = %6, %1
  store ptr null, ptr %2, align 8
  br label %19

12:                                               ; preds = %6
  %13 = load ptr, ptr %3, align 8, !tbaa !15
  %14 = getelementptr inbounds nuw %struct.X509_req_st, ptr %13, i32 0, i32 0
  %15 = load ptr, ptr %14, align 8, !tbaa !17
  %16 = getelementptr inbounds nuw %struct.X509_req_info_st, ptr %15, i32 0, i32 3
  %17 = load ptr, ptr %16, align 8, !tbaa !37
  %18 = call ptr @X509_PUBKEY_get(ptr noundef %17)
  store ptr %18, ptr %2, align 8
  br label %19

19:                                               ; preds = %12, %11
  %20 = load ptr, ptr %2, align 8
  ret ptr %20
}

; Function Attrs: nounwind uwtable
define hidden i32 @X509_REQ_check_private_key(ptr noundef %0, ptr noundef %1) #0 {
  %3 = alloca ptr, align 8
  %4 = alloca ptr, align 8
  %5 = alloca ptr, align 8
  %6 = alloca i32, align 4
  store ptr %0, ptr %3, align 8, !tbaa !15
  store ptr %1, ptr %4, align 8, !tbaa !11
  call void @llvm.lifetime.start.p0(i64 8, ptr %5) #4
  store ptr null, ptr %5, align 8, !tbaa !11
  call void @llvm.lifetime.start.p0(i64 4, ptr %6) #4
  store i32 0, ptr %6, align 4, !tbaa !36
  %7 = load ptr, ptr %3, align 8, !tbaa !15
  %8 = call ptr @X509_REQ_get_pubkey(ptr noundef %7)
  store ptr %8, ptr %5, align 8, !tbaa !11
  %9 = load ptr, ptr %5, align 8, !tbaa !11
  %10 = load ptr, ptr %4, align 8, !tbaa !11
  %11 = call i32 @EVP_PKEY_cmp(ptr noundef %9, ptr noundef %10)
  switch i32 %11, label %28 [
    i32 1, label %12
    i32 0, label %13
    i32 -1, label %14
    i32 -2, label %15
  ]

12:                                               ; preds = %2
  store i32 1, ptr %6, align 4, !tbaa !36
  br label %28

13:                                               ; preds = %2
  call void @ERR_put_error(i32 noundef 11, i32 noundef 0, i32 noundef 116, ptr noundef @.str, i32 noundef 129)
  br label %28

14:                                               ; preds = %2
  call void @ERR_put_error(i32 noundef 11, i32 noundef 0, i32 noundef 115, ptr noundef @.str, i32 noundef 132)
  br label %28

15:                                               ; preds = %2
  %16 = load ptr, ptr %4, align 8, !tbaa !11
  %17 = getelementptr inbounds nuw %struct.evp_pkey_st, ptr %16, i32 0, i32 1
  %18 = load i32, ptr %17, align 4, !tbaa !38
  %19 = icmp eq i32 %18, 408
  br i1 %19, label %20, label %21

20:                                               ; preds = %15
  call void @ERR_put_error(i32 noundef 11, i32 noundef 0, i32 noundef 15, ptr noundef @.str, i32 noundef 136)
  br label %28

21:                                               ; preds = %15
  %22 = load ptr, ptr %4, align 8, !tbaa !11
  %23 = getelementptr inbounds nuw %struct.evp_pkey_st, ptr %22, i32 0, i32 1
  %24 = load i32, ptr %23, align 4, !tbaa !38
  %25 = icmp eq i32 %24, 28
  br i1 %25, label %26, label %27

26:                                               ; preds = %21
  call void @ERR_put_error(i32 noundef 11, i32 noundef 0, i32 noundef 104, ptr noundef @.str, i32 noundef 141)
  br label %28

27:                                               ; preds = %21
  call void @ERR_put_error(i32 noundef 11, i32 noundef 0, i32 noundef 128, ptr noundef @.str, i32 noundef 144)
  br label %28

28:                                               ; preds = %27, %2, %26, %20, %14, %13, %12
  %29 = load ptr, ptr %5, align 8, !tbaa !11
  call void @EVP_PKEY_free(ptr noundef %29)
  %30 = load i32, ptr %6, align 4, !tbaa !36
  call void @llvm.lifetime.end.p0(i64 4, ptr %6) #4
  call void @llvm.lifetime.end.p0(i64 8, ptr %5) #4
  ret i32 %30
}