; Function Attrs: nounwind uwtable
define hidden range(i32 0, 2) i32 @X509_REQ_check_private_key(ptr noundef readonly captures(address_is_null) %0, ptr noundef %1) local_unnamed_addr #0 {
  %3 = icmp eq ptr %0, null
  br i1 %3, label %X509_REQ_get_pubkey.exit, label %4

4:                                                ; preds = %2
  %5 = load ptr, ptr %0, align 8, !tbaa !6
  %6 = icmp eq ptr %5, null
  br i1 %6, label %X509_REQ_get_pubkey.exit, label %7

7:                                                ; preds = %4
  %8 = getelementptr inbounds nuw i8, ptr %5, i64 40
  %9 = load ptr, ptr %8, align 8, !tbaa !27
  %10 = tail call ptr @X509_PUBKEY_get(ptr noundef %9) #7
  br label %X509_REQ_get_pubkey.exit

X509_REQ_get_pubkey.exit:                         ; preds = %2, %4, %7
  %.0.i = phi ptr [ %10, %7 ], [ null, %4 ], [ null, %2 ]
  %11 = tail call i32 @EVP_PKEY_cmp(ptr noundef %.0.i, ptr noundef %1) #7
  switch i32 %11, label %21 [
    i32 1, label %12
    i32 0, label %13
    i32 -1, label %14
    i32 -2, label %15
  ]

12:                                               ; preds = %X509_REQ_get_pubkey.exit
  br label %21

13:                                               ; preds = %X509_REQ_get_pubkey.exit
  tail call void @ERR_put_error(i32 noundef 11, i32 noundef 0, i32 noundef 116, ptr noundef nonnull @.str, i32 noundef 129) #7
  br label %21

14:                                               ; preds = %X509_REQ_get_pubkey.exit
  tail call void @ERR_put_error(i32 noundef 11, i32 noundef 0, i32 noundef 115, ptr noundef nonnull @.str, i32 noundef 132) #7
  br label %21

15:                                               ; preds = %X509_REQ_get_pubkey.exit
  %16 = getelementptr inbounds nuw i8, ptr %1, i64 4
  %17 = load i32, ptr %16, align 4, !tbaa !28
  switch i32 %17, label %20 [
    i32 408, label %18
    i32 28, label %19
  ]

18:                                               ; preds = %15
  tail call void @ERR_put_error(i32 noundef 11, i32 noundef 0, i32 noundef 15, ptr noundef nonnull @.str, i32 noundef 136) #7
  br label %21

19:                                               ; preds = %15
  tail call void @ERR_put_error(i32 noundef 11, i32 noundef 0, i32 noundef 104, ptr noundef nonnull @.str, i32 noundef 141) #7
  br label %21

20:                                               ; preds = %15
  tail call void @ERR_put_error(i32 noundef 11, i32 noundef 0, i32 noundef 128, ptr noundef nonnull @.str, i32 noundef 144) #7
  br label %21

21:                                               ; preds = %20, %19, %18, %14, %13, %12, %X509_REQ_get_pubkey.exit
  %.0 = phi i32 [ 0, %X509_REQ_get_pubkey.exit ], [ 0, %18 ], [ 0, %19 ], [ 0, %20 ], [ 0, %14 ], [ 0, %13 ], [ 1, %12 ]
  tail call void @EVP_PKEY_free(ptr noundef %.0.i) #7
  ret i32 %.0
}